target datalayout = "e-m:e-p270:32:32-p271:32:32-p272:64:64-i64:64-i128:128-f80:128-n8:16:32:64-S128"
target triple = "x86_64-unknown-linux-gnu"

%class.btSoftBodyRigidBodyCollisionConfiguration = type { %class.btDefaultCollisionConfiguration, ptr, ptr, ptr, ptr, ptr }
%class.btDefaultCollisionConfiguration = type { %class.btCollisionConfiguration, i32, ptr, i8, ptr, i8, ptr, ptr, ptr, ptr, ptr, ptr, ptr, ptr, ptr, ptr, ptr, ptr, ptr, ptr, ptr, ptr }
%class.btCollisionConfiguration = type { ptr }

; Function Attrs: mustprogress nounwind uwtable
define dso_local void @_ZN41btSoftBodyRigidBodyCollisionConfigurationD2Ev(ptr noundef nonnull align 8 dereferenceable(216) %this) unnamed_addr #1 align 2 personality ptr @__gxx_personality_v0 {
entry:
  %this.addr = alloca ptr, align 8
  store ptr %this, ptr %this.addr, align 8
  %this1 = load ptr, ptr %this.addr, align 8
  store ptr getelementptr inbounds ({ [8 x ptr] }, ptr @_ZTV41btSoftBodyRigidBodyCollisionConfiguration, i32 0, i32 0, i32 2), ptr %this1, align 8
  %m_softSoftCreateFunc = getelementptr inbounds %class.btSoftBodyRigidBodyCollisionConfiguration, ptr %this1, i32 0, i32 1
  %0 = load ptr, ptr %m_softSoftCreateFunc, align 8
  %vtable = load ptr, ptr %0, align 8
  %vfn = getelementptr inbounds ptr, ptr %vtable, i64 0
  %1 = load ptr, ptr %vfn, align 8
  call void %1(ptr noundef nonnull align 8 dereferenceable(9) %0) #7
  %m_softSoftCreateFunc2 = getelementptr inbounds %class.btSoftBodyRigidBodyCollisionConfiguration, ptr %this1, i32 0, i32 1
  %2 = load ptr, ptr %m_softSoftCreateFunc2, align 8
  invoke void @_Z21btAlignedFreeInternalPv(ptr noundef %2)
          to label %invoke.cont unwind label %terminate.lpad

invoke.cont:                                      ; preds = %entry
  %m_softRigidConvexCreateFunc = getelementptr inbounds %class.btSoftBodyRigidBodyCollisionConfiguration, ptr %this1, i32 0, i32 2
  %3 = load ptr, ptr %m_softRigidConvexCreateFunc, align 8
  %vtable3 = load ptr, ptr %3, align 8
  %vfn4 = getelementptr inbounds ptr, ptr %vtable3, i64 0
  %4 = load ptr, ptr %vfn4, align 8
  call void %4(ptr noundef nonnull align 8 dereferenceable(9) %3) #7
  %m_softRigidConvexCreateFunc5 = getelementptr inbounds %class.btSoftBodyRigidBodyCollisionConfiguration, ptr %this1, i32 0, i32 2
  %5 = load ptr, ptr %m_softRigidConvexCreateFunc5, align 8
  invoke void @_Z21btAlignedFreeInternalPv(ptr noundef %5)
          to label %invoke.cont6 unwind label %terminate.lpad

invoke.cont6:                                     ; preds = %invoke.cont
  %m_swappedSoftRigidConvexCreateFunc = getelementptr inbounds %class.btSoftBodyRigidBodyCollisionConfiguration, ptr %this1, i32 0, i32 3
  %6 = load ptr, ptr %m_swappedSoftRigidConvexCreateFunc, align 8
  %vtable7 = load ptr, ptr %6, align 8
  %vfn8 = getelementptr inbounds ptr, ptr %vtable7, i64 0
  %7 = load ptr, ptr %vfn8, align 8
  call void %7(ptr noundef nonnull align 8 dereferenceable(9) %6) #7
  %m_swappedSoftRigidConvexCreateFunc9 = getelementptr inbounds %class.btSoftBodyRigidBodyCollisionConfiguration, ptr %this1, i32 0, i32 3
  %8 = load ptr, ptr %m_swappedSoftRigidConvexCreateFunc9, align 8
  invoke void @_Z21btAlignedFreeInternalPv(ptr noundef %8)
          to label %invoke.cont10 unwind label %terminate.lpad

invoke.cont10:                                    ; preds = %invoke.cont6
  %m_softRigidConcaveCreateFunc = getelementptr inbounds %class.btSoftBodyRigidBodyCollisionConfiguration, ptr %this1, i32 0, i32 4
  %9 = load ptr, ptr %m_softRigidConcaveCreateFunc, align 8
  %vtable11 = load ptr, ptr %9, align 8
  %vfn12 = getelementptr inbounds ptr, ptr %vtable11, i64 0
  %10 = load ptr, ptr %vfn12, align 8
  call void %10(ptr noundef nonnull align 8 dereferenceable(9) %9) #7
  %m_softRigidConcaveCreateFunc13 = getelementptr inbounds %class.btSoftBodyRigidBodyCollisionConfiguration, ptr %this1, i32 0, i32 4
  %11 = load ptr, ptr %m_softRigidConcaveCreateFunc13, align 8
  invoke void @_Z21btAlignedFreeInternalPv(ptr noundef %11)
          to label %invoke.cont14 unwind label %terminate.lpad

invoke.cont14:                                    ; preds = %invoke.cont10
  %m_swappedSoftRigidConcaveCreateFunc = getelementptr inbounds %class.btSoftBodyRigidBodyCollisionConfiguration, ptr %this1, i32 0, i32 5
  %12 = load ptr, ptr %m_swappedSoftRigidConcaveCreateFunc, align 8
  %vtable15 = load ptr, ptr %12, align 8
  %vfn16 = getelementptr inbounds ptr, ptr %vtable15, i64 0
  %13 = load ptr, ptr %vfn16, align 8
  call void %13(ptr noundef nonnull align 8 dereferenceable(9) %12) #7
  %m_swappedSoftRigidConcaveCreateFunc17 = getelementptr inbounds %class.btSoftBodyRigidBodyCollisionConfiguration, ptr %this1, i32 0, i32 5
  %14 = load ptr, ptr %m_swappedSoftRigidConcaveCreateFunc17, align 8
  invoke void @_Z21btAlignedFreeInternalPv(ptr noundef %14)
          to label %invoke.cont18 unwind label %terminate.lpad

invoke.cont18:                                    ; preds = %invoke.cont14
  call void @_ZN31btDefaultCollisionConfigurationD2Ev(ptr noundef nonnull align 8 dereferenceable(176) %this1) #7
  ret void

terminate.lpad:                                   ; preds = %invoke.cont14, %invoke.cont10, %invoke.cont6, %invoke.cont, %entry
  %15 = landingpad { ptr, i32 }
          catch ptr null
  %16 = extractvalue { ptr, i32 } %15, 0
  call void @__clang_call_terminate(ptr %16) #8
  unreachable
}