; Function Attrs: mustprogress nounwind uwtable
define dso_local void @_ZN41btSoftBodyRigidBodyCollisionConfigurationD2Ev(ptr noundef nonnull align 8 dereferenceable(216) %this) unnamed_addr #3 align 2 personality ptr @__gxx_personality_v0 {
entry:
  store ptr getelementptr inbounds ({ [8 x ptr] }, ptr @_ZTV41btSoftBodyRigidBodyCollisionConfiguration, i64 0, i32 0, i64 2), ptr %this, align 8
  %m_softSoftCreateFunc = getelementptr inbounds i8, ptr %this, i64 176
  %0 = load ptr, ptr %m_softSoftCreateFunc, align 8
  %vtable = load ptr, ptr %0, align 8
  %1 = load ptr, ptr %vtable, align 8
  tail call void %1(ptr noundef nonnull align 8 dereferenceable(9) %0) #7
  %2 = load ptr, ptr %m_softSoftCreateFunc, align 8
  invoke void @_Z21btAlignedFreeInternalPv(ptr noundef %2)
          to label %invoke.cont unwind label %terminate.lpad

invoke.cont:                                      ; preds = %entry
  %m_softRigidConvexCreateFunc = getelementptr inbounds i8, ptr %this, i64 184
  %3 = load ptr, ptr %m_softRigidConvexCreateFunc, align 8
  %vtable3 = load ptr, ptr %3, align 8
  %4 = load ptr, ptr %vtable3, align 8
  tail call void %4(ptr noundef nonnull align 8 dereferenceable(9) %3) #7
  %5 = load ptr, ptr %m_softRigidConvexCreateFunc, align 8
  invoke void @_Z21btAlignedFreeInternalPv(ptr noundef %5)
          to label %invoke.cont6 unwind label %terminate.lpad

invoke.cont6:                                     ; preds = %invoke.cont
  %m_swappedSoftRigidConvexCreateFunc = getelementptr inbounds i8, ptr %this, i64 192
  %6 = load ptr, ptr %m_swappedSoftRigidConvexCreateFunc, align 8
  %vtable7 = load ptr, ptr %6, align 8
  %7 = load ptr, ptr %vtable7, align 8
  tail call void %7(ptr noundef nonnull align 8 dereferenceable(9) %6) #7
  %8 = load ptr, ptr %m_swappedSoftRigidConvexCreateFunc, align 8
  invoke void @_Z21btAlignedFreeInternalPv(ptr noundef %8)
          to label %invoke.cont10 unwind label %terminate.lpad

invoke.cont10:                                    ; preds = %invoke.cont6
  %m_softRigidConcaveCreateFunc = getelementptr inbounds i8, ptr %this, i64 200
  %9 = load ptr, ptr %m_softRigidConcaveCreateFunc, align 8
  %vtable11 = load ptr, ptr %9, align 8
  %10 = load ptr, ptr %vtable11, align 8
  tail call void %10(ptr noundef nonnull align 8 dereferenceable(9) %9) #7
  %11 = load ptr, ptr %m_softRigidConcaveCreateFunc, align 8
  invoke void @_Z21btAlignedFreeInternalPv(ptr noundef %11)
          to label %invoke.cont14 unwind label %terminate.lpad

invoke.cont14:                                    ; preds = %invoke.cont10
  %m_swappedSoftRigidConcaveCreateFunc = getelementptr inbounds i8, ptr %this, i64 208
  %12 = load ptr, ptr %m_swappedSoftRigidConcaveCreateFunc, align 8
  %vtable15 = load ptr, ptr %12, align 8
  %13 = load ptr, ptr %vtable15, align 8
  tail call void %13(ptr noundef nonnull align 8 dereferenceable(9) %12) #7
  %14 = load ptr, ptr %m_swappedSoftRigidConcaveCreateFunc, align 8
  invoke void @_Z21btAlignedFreeInternalPv(ptr noundef %14)
          to label %invoke.cont18 unwind label %terminate.lpad

invoke.cont18:                                    ; preds = %invoke.cont14
  tail call void @_ZN31btDefaultCollisionConfigurationD2Ev(ptr noundef nonnull align 8 dereferenceable(176) %this) #7
  ret void

terminate.lpad:                                   ; preds = %invoke.cont14, %invoke.cont10, %invoke.cont6, %invoke.cont, %entry
  %15 = landingpad { ptr, i32 }
          catch ptr null
  %16 = extractvalue { ptr, i32 } %15, 0
  tail call void @__clang_call_terminate(ptr %16) #6
  unreachable
}